target datalayout = "e-m:e-p270:32:32-p271:32:32-p272:64:64-i64:64-i128:128-f80:128-n8:16:32:64-S128"
target triple = "x86_64-pc-linux-gnu"

%struct.fix_scan_expr_context = type { ptr, i32, double }

; Function Attrs: nounwind uwtable
define internal zeroext i1 @fix_scan_expr_walker(ptr noundef %0, ptr noundef %1) #0 {
  %3 = alloca i1, align 1
  %4 = alloca ptr, align 8
  %5 = alloca ptr, align 8
  store ptr %0, ptr %4, align 8
  store ptr %1, ptr %5, align 8
  %6 = load ptr, ptr %4, align 8
  %7 = icmp eq ptr %6, null
  br i1 %7, label %8, label %9

8:                                                ; preds = %2
  store i1 false, ptr %3, align 1
  br label %17

9:                                                ; preds = %2
  %10 = load ptr, ptr %5, align 8
  %11 = getelementptr inbounds nuw %struct.fix_scan_expr_context, ptr %10, i32 0, i32 0
  %12 = load ptr, ptr %11, align 8
  %13 = load ptr, ptr %4, align 8
  call void @fix_expr_common(ptr noundef %12, ptr noundef %13)
  %14 = load ptr, ptr %4, align 8
  %15 = load ptr, ptr %5, align 8
  %16 = call zeroext i1 @expression_tree_walker_impl(ptr noundef %14, ptr noundef @fix_scan_expr_walker, ptr noundef %15)
  store i1 %16, ptr %3, align 1
  br label %17

17:                                               ; preds = %9, %8
  %18 = load i1, ptr %3, align 1
  ret i1 %18
}