; Function Attrs: nounwind uwtable
define internal zeroext i1 @fix_scan_expr_walker(ptr noundef %0, ptr noundef %1) #0 {
  %3 = icmp eq ptr %0, null
  br i1 %3, label %7, label %4

4:                                                ; preds = %2
  %5 = load ptr, ptr %1, align 8
  tail call fastcc void @fix_expr_common(ptr noundef %5, ptr noundef %0)
  %6 = tail call zeroext i1 @expression_tree_walker_impl(ptr noundef nonnull %0, ptr noundef nonnull @fix_scan_expr_walker, ptr noundef nonnull %1) #8
  br label %7

7:                                                ; preds = %2, %4
  %.0 = phi i1 [ %6, %4 ], [ false, %2 ]
  ret i1 %.0
}